target datalayout = "e-m:e-p270:32:32-p271:32:32-p272:64:64-i64:64-i128:128-f80:128-n8:16:32:64-S128"
target triple = "x86_64-pc-linux-gnu"

@_ZN12_GLOBAL__N_111g_cached_cqE = internal thread_local global ptr null, align 8
@_ZN12_GLOBAL__N_114g_cached_eventE = internal thread_local global ptr null, align 8

; Function Attrs: mustprogress nounwind uwtable
define void @grpc_completion_queue_thread_local_cache_init(ptr noundef %0) #4 {
  %2 = alloca ptr, align 8
  store ptr %0, ptr %2, align 8, !tbaa !3
  %3 = call align 8 ptr @llvm.threadlocal.address.p0(ptr align 8 @_ZN12_GLOBAL__N_111g_cached_cqE)
  %4 = load ptr, ptr %3, align 8, !tbaa !3
  %5 = icmp eq ptr %4, null
  br i1 %5, label %6, label %10

6:                                                ; preds = %1
  %7 = call align 8 ptr @llvm.threadlocal.address.p0(ptr align 8 @_ZN12_GLOBAL__N_114g_cached_eventE)
  store ptr null, ptr %7, align 8, !tbaa !8
  %8 = load ptr, ptr %2, align 8, !tbaa !3
  %9 = call align 8 ptr @llvm.threadlocal.address.p0(ptr align 8 @_ZN12_GLOBAL__N_111g_cached_cqE)
  store ptr %8, ptr %9, align 8, !tbaa !3
  br label %10

10:                                               ; preds = %6, %1
  ret void
}