; Function Attrs: mustprogress nofree norecurse nosync nounwind willreturn memory(readwrite, argmem: none, inaccessiblemem: none) uwtable
define void @grpc_completion_queue_thread_local_cache_init(ptr noundef %0) local_unnamed_addr #3 {
  %2 = tail call align 8 ptr @llvm.threadlocal.address.p0(ptr align 8 @_ZN12_GLOBAL__N_111g_cached_cqE)
  %3 = load ptr, ptr %2, align 8, !tbaa !3
  %4 = icmp eq ptr %3, null
  br i1 %4, label %5, label %7

5:                                                ; preds = %1
  %6 = tail call align 8 ptr @llvm.threadlocal.address.p0(ptr align 8 @_ZN12_GLOBAL__N_114g_cached_eventE)
  store ptr null, ptr %6, align 8, !tbaa !8
  store ptr %0, ptr %2, align 8, !tbaa !3
  br label %7

7:                                                ; preds = %5, %1
  ret void
}